Certificate Revocation List (CRL):
        Version 2 (0x1)
        Signature Algorithm: sha256WithRSAEncryption
        Issuer: C = US, ST = Montana, L = Bozeman, O = Sawtooth, OU = Consulting, CN = www.wolfssl.com, emailAddress = info@wolfssl.com
        Last Update: Dec 18 21:25:34 2024 GMT
        Next Update: Sep 14 21:25:34 2027 GMT
        CRL extensions:
            X509v3 CRL Number: 
                2
Revoked Certificates:
    Serial Number: 02
        Revocation Date: Dec 18 21:25:34 2024 GMT
    Signature Algorithm: sha256WithRSAEncryption
    Signature Value:
        12:0f:c8:40:72:63:f9:e2:60:6d:d2:b2:90:57:a0:c2:dc:fa:
        44:0d:ac:c2:f6:68:30:04:42:1a:8d:5a:0b:12:b6:78:1d:30:
        81:09:db:71:26:4d:5c:7b:32:58:79:5a:fa:ec:4f:32:db:68:
        45:5e:e9:7f:52:82:fc:4a:04:37:18:34:b3:da:f4:e3:39:93:
        97:60:bb:ea:9a:2a:75:5c:60:57:d5:8b:da:8f:06:d2:21:cd:
        a3:e3:dc:dc:5e:81:bd:8f:a8:da:07:1a:02:31:1b:95:5b:2e:
        47:5d:74:01:e7:d7:fe:c4:4c:ef:28:ca:7f:9b:c5:ea:42:2f:
        49:d7:e8:f3:44:0d:55:85:76:77:02:9f:c8:00:d5:73:5a:55:
        71:5b:8e:d7:31:25:8d:a8:14:4f:34:90:34:e4:4f:30:8e:ae:
        a3:98:85:df:57:e6:a0:ef:99:7b:82:31:5e:db:8c:61:1d:a7:
        71:88:c6:06:27:71:98:00:94:81:d4:a2:97:de:5a:c6:32:e7:
        51:2a:b6:36:4c:56:d0:fc:b8:19:fa:8b:d5:b4:e6:17:a9:a3:
        64:2b:65:7f:3a:89:b7:f6:0b:40:5f:f8:c2:9c:77:1c:01:20:
        6b:1c:04:a5:19:7e:7c:d4:c5:3c:9d:3e:c9:1d:39:b8:e7:5a:
        38:47:05:67
-----BEGIN X509 CRL-----
MIICBDCB7QIBATANBgkqhkiG9w0BAQsFADCBlDELMAkGA1UEBhMCVVMxEDAOBgNV
BAgMB01vbnRhbmExEDAOBgNVBAcMB0JvemVtYW4xETAPBgNVBAoMCFNhd3Rvb3Ro
MRMwEQYDVQQLDApDb25zdWx0aW5nMRgwFgYDVQQDDA93d3cud29sZnNzbC5jb20x
HzAdBgkqhkiG9w0BCQEWEGluZm9Ad29sZnNzbC5jb20XDTI0MTIxODIxMjUzNFoX
DTI3MDkxNDIxMjUzNFowFDASAgECFw0yNDEyMTgyMTI1MzRaoA4wDDAKBgNVHRQE
AwIBAjANBgkqhkiG9w0BAQsFAAOCAQEAEg/IQHJj+eJgbdKykFegwtz6RA2swvZo
MARCGo1aCxK2eB0wgQnbcSZNXHsyWHla+uxPMttoRV7pf1KC/EoENxg0s9r04zmT
l2C76poqdVxgV9WL2o8G0iHNo+Pc3F6BvY+o2gcaAjEblVsuR110AefX/sRM7yjK
f5vF6kIvSdfo80QNVYV2dwKfyADVc1pVcVuO1zEljagUTzSQNORPMI6uo5iF31fm
oO+Ze4IxXtuMYR2ncYjGBidxmACUgdSil95axjLnUSq2NkxW0Py4GfqL1bTmF6mj
ZCtlfzqJt/YLQF/4wpx3HAEgaxwEpRl+fNTFPJ0+yR05uOdaOEcFZw==
-----END X509 CRL-----
Certificate:
    Data:
        Version: 3 (0x2)
        Serial Number:
            6b:9b:70:c6:f1:a3:94:65:19:a1:08:58:ef:a7:8d:2b:7a:83:c1:da
        Signature Algorithm: sha256WithRSAEncryption
        Issuer: C = US, ST = Montana, L = Bozeman, O = Sawtooth, OU = Consulting, CN = www.wolfssl.com, emailAddress = info@wolfssl.com
        Validity
            Not Before: Dec 18 21:25:29 2024 GMT
            Not After : Sep 14 21:25:29 2027 GMT
        Subject: C = US, ST = Montana, L = Bozeman, O = Sawtooth, OU = Consulting, CN = www.wolfssl.com, emailAddress = info@wolfssl.com
        Subject Public Key Info:
            Public Key Algorithm: rsaEncryption
                Public-Key: (2048 bit)
                Modulus:
                    00:bf:0c:ca:2d:14:b2:1e:84:42:5b:cd:38:1f:4a:
                    f2:4d:75:10:f1:b6:35:9f:df:ca:7d:03:98:d3:ac:
                    de:03:66:ee:2a:f1:d8:b0:7d:6e:07:54:0b:10:98:
                    21:4d:80:cb:12:20:e7:cc:4f:de:45:7d:c9:72:77:
                    32:ea:ca:90:bb:69:52:10:03:2f:a8:f3:95:c5:f1:
                    8b:62:56:1b:ef:67:6f:a4:10:41:95:ad:0a:9b:e3:
                    a5:c0:b0:d2:70:76:50:30:5b:a8:e8:08:2c:7c:ed:
                    a7:a2:7a:8d:38:29:1c:ac:c7:ed:f2:7c:95:b0:95:
                    82:7d:49:5c:38:cd:77:25:ef:bd:80:75:53:94:3c:
                    3d:ca:63:5b:9f:15:b5:d3:1d:13:2f:19:d1:3c:db:
                    76:3a:cc:b8:7d:c9:e5:c2:d7:da:40:6f:d8:21:dc:
                    73:1b:42:2d:53:9c:fe:1a:fc:7d:ab:7a:36:3f:98:
                    de:84:7c:05:67:ce:6a:14:38:87:a9:f1:8c:b5:68:
                    cb:68:7f:71:20:2b:f5:a0:63:f5:56:2f:a3:26:d2:
                    b7:6f:b1:5a:17:d7:38:99:08:fe:93:58:6f:fe:c3:
                    13:49:08:16:0b:a7:4d:67:00:52:31:67:23:4e:98:
                    ed:51:45:1d:b9:04:d9:0b:ec:d8:28:b3:4b:bd:ed:
                    36:79
                Exponent: 65537 (0x10001)
        X509v3 extensions:
            X509v3 Subject Key Identifier: 
                27:8E:67:11:74:C3:26:1D:3F:ED:33:63:B3:A4:D8:1D:30:E5:E8:D5
            X509v3 Authority Key Identifier: 
                keyid:27:8E:67:11:74:C3:26:1D:3F:ED:33:63:B3:A4:D8:1D:30:E5:E8:D5
                DirName:/C=US/ST=Montana/L=Bozeman/O=Sawtooth/OU=Consulting/CN=www.wolfssl.com/emailAddress=info@wolfssl.com
                serial:6B:9B:70:C6:F1:A3:94:65:19:A1:08:58:EF:A7:8D:2B:7A:83:C1:DA
            X509v3 Basic Constraints: 
                CA:TRUE
            X509v3 Subject Alternative Name: 
                DNS:example.com, IP Address:127.0.0.1
            X509v3 Extended Key Usage: 
                TLS Web Server Authentication, TLS Web Client Authentication
    Signature Algorithm: sha256WithRSAEncryption
    Signature Value:
        77:3b:3d:66:74:bc:97:fe:40:16:e6:ba:a5:d5:d1:84:08:89:
        69:4f:88:0d:57:a9:ef:8c:c3:97:52:c8:bd:8b:a2:49:3b:b7:
        f7:5d:1e:d6:14:7f:b2:80:33:da:a0:8a:d3:e1:2f:d5:bc:33:
        9f:ea:5a:72:24:e5:f8:b8:4b:b3:df:62:90:3b:a8:21:ef:27:
        42:75:bc:60:02:8e:37:35:99:eb:a3:28:f2:65:4c:ff:7a:f8:
        8e:cc:23:6d:e5:6a:fe:22:5a:d9:b2:4f:47:c7:e0:ae:98:ef:
        94:ac:b6:4f:61:81:29:8e:e1:79:2c:46:fc:e9:1a:c3:96:1f:
        19:93:64:2e:9f:37:72:c5:e4:93:4e:61:5f:38:8e:ae:e8:39:
        19:e6:97:a8:91:d4:23:7e:1e:d2:d0:53:ec:cc:ac:a0:1d:d0:
        b7:dd:b1:b7:01:2e:96:cd:85:27:e0:e7:47:e2:c1:c1:00:f6:
        94:df:77:e7:fa:c6:ef:8a:c0:7c:67:bc:ff:a0:7c:94:3b:7d:
        86:42:af:3d:83:31:ee:2a:3b:7b:f0:2c:9e:6f:e9:c4:07:81:
        24:da:05:70:4d:dd:09:ae:9e:72:b8:21:0e:8c:b2:ab:aa:4c:
        49:10:f7:76:f9:b5:0d:6c:20:d3:df:7a:06:32:8d:29:1f:28:
        1d:8d:26:33
-----BEGIN CERTIFICATE-----
MIIE/zCCA+egAwIBAgIUa5twxvGjlGUZoQhY76eNK3qDwdowDQYJKoZIhvcNAQEL
BQAwgZQxCzAJBgNVBAYTAlVTMRAwDgYDVQQIDAdNb250YW5hMRAwDgYDVQQHDAdC
b3plbWFuMREwDwYDVQQKDAhTYXd0b290aDETMBEGA1UECwwKQ29uc3VsdGluZzEY
MBYGA1UEAwwPd3d3LndvbGZzc2wuY29tMR8wHQYJKoZIhvcNAQkBFhBpbmZvQHdv
bGZzc2wuY29tMB4XDTI0MTIxODIxMjUyOVoXDTI3MDkxNDIxMjUyOVowgZQxCzAJ
BgNVBAYTAlVTMRAwDgYDVQQIDAdNb250YW5hMRAwDgYDVQQHDAdCb3plbWFuMREw
DwYDVQQKDAhTYXd0b290aDETMBEGA1UECwwKQ29uc3VsdGluZzEYMBYGA1UEAwwP
d3d3LndvbGZzc2wuY29tMR8wHQYJKoZIhvcNAQkBFhBpbmZvQHdvbGZzc2wuY29t
MIIBIjANBgkqhkiG9w0BAQEFAAOCAQ8AMIIBCgKCAQEAvwzKLRSyHoRCW804H0ry
TXUQ8bY1n9/KfQOY06zeA2buKvHYsH1uB1QLEJghTYDLEiDnzE/eRX3Jcncy6sqQ
u2lSEAMvqPOVxfGLYlYb72dvpBBBla0Km+OlwLDScHZQMFuo6AgsfO2nonqNOCkc
rMft8nyVsJWCfUlcOM13Je+9gHVTlDw9ymNbnxW10x0TLxnRPNt2Osy4fcnlwtfa
QG/YIdxzG0ItU5z+Gvx9q3o2P5jehHwFZ85qFDiHqfGMtWjLaH9xICv1oGP1Vi+j
JtK3b7FaF9c4mQj+k1hv/sMTSQgWC6dNZwBSMWcjTpjtUUUduQTZC+zYKLNLve02
eQIDAQABo4IBRTCCAUEwHQYDVR0OBBYEFCeOZxF0wyYdP+0zY7Ok2B0w5ejVMIHU
BgNVHSMEgcwwgcmAFCeOZxF0wyYdP+0zY7Ok2B0w5ejVoYGapIGXMIGUMQswCQYD
VQQGEwJVUzEQMA4GA1UECAwHTW9udGFuYTEQMA4GA1UEBwwHQm96ZW1hbjERMA8G
A1UECgwIU2F3dG9vdGgxEzARBgNVBAsMCkNvbnN1bHRpbmcxGDAWBgNVBAMMD3d3
dy53b2xmc3NsLmNvbTEfMB0GCSqGSIb3DQEJARYQaW5mb0B3b2xmc3NsLmNvbYIU
a5twxvGjlGUZoQhY76eNK3qDwdowDAYDVR0TBAUwAwEB/zAcBgNVHREEFTATggtl
eGFtcGxlLmNvbYcEfwAAATAdBgNVHSUEFjAUBggrBgEFBQcDAQYIKwYBBQUHAwIw
DQYJKoZIhvcNAQELBQADggEBAHc7PWZ0vJf+QBbmuqXV0YQIiWlPiA1Xqe+Mw5dS
yL2Lokk7t/ddHtYUf7KAM9qgitPhL9W8M5/qWnIk5fi4S7PfYpA7qCHvJ0J1vGAC
jjc1meujKPJlTP96+I7MI23lav4iWtmyT0fH4K6Y75Sstk9hgSmO4XksRvzpGsOW
HxmTZC6fN3LF5JNOYV84jq7oORnml6iR1CN+HtLQU+zMrKAd0LfdsbcBLpbNhSfg
50fiwcEA9pTfd+f6xu+KwHxnvP+gfJQ7fYZCrz2DMe4qO3vwLJ5v6cQHgSTaBXBN
3QmunnK4IQ6MsquqTEkQ93b5tQ1sINPfegYyjSkfKB2NJjM=
-----END CERTIFICATE-----
