Certificate Revocation List (CRL):
        Version 2 (0x1)
        Signature Algorithm: sha256WithRSAEncryption
        Issuer: C = US, ST = Montana, L = Bozeman, O = Sawtooth, OU = Consulting, CN = www.wolfssl.com, emailAddress = info@wolfssl.com
        Last Update: Dec 20 23:07:25 2021 GMT
        Next Update: Sep 15 23:07:25 2024 GMT
        CRL extensions:
            X509v3 CRL Number: 
                2
Revoked Certificates:
    Serial Number: 02
        Revocation Date: Dec 20 23:07:25 2021 GMT
    Signature Algorithm: sha256WithRSAEncryption
         8b:c0:b8:cb:03:5c:8c:d1:53:b2:c5:b1:4d:f3:b3:e8:13:bf:
         5f:a7:1a:cc:74:e8:06:66:c1:cb:89:c3:e3:b3:fb:68:4e:8f:
         d0:5b:33:d8:ed:5e:14:b3:21:c8:c0:06:66:97:6d:69:96:78:
         bd:a9:d1:59:85:0f:13:29:2d:2f:49:87:94:84:14:94:38:74:
         04:16:94:10:ea:f2:31:d8:34:b7:65:e8:5e:52:4f:96:ac:bf:
         5f:4f:6c:ee:5d:04:2a:26:b2:29:7c:9d:06:82:b3:b5:e6:5b:
         d5:11:72:56:d5:34:75:82:5e:2a:f3:c6:67:72:94:c6:02:83:
         e8:58:85:2d:73:db:55:30:a2:c2:b1:bb:4c:bf:f6:a2:d8:b3:
         fc:1b:bd:51:97:4e:f4:c2:04:4f:04:ee:61:e7:51:4b:4f:09:
         fe:10:5c:3c:1e:e0:cb:51:1f:54:f4:38:3f:6c:58:ee:4e:f8:
         ca:34:cd:37:ee:bb:06:53:14:c7:60:a4:89:ac:9a:50:4a:b5:
         9e:b3:59:97:9b:27:5e:5c:fa:14:74:3d:a2:76:62:63:ae:e8:
         d2:f9:b7:ad:0c:3f:07:40:50:5c:e4:fb:95:3c:3d:df:2e:81:
         f2:6a:9e:01:69:c3:a2:1e:d7:00:2b:6d:6c:67:f0:fb:13:ce:
         f1:a5:08:d6
-----BEGIN X509 CRL-----
MIICBDCB7QIBATANBgkqhkiG9w0BAQsFADCBlDELMAkGA1UEBhMCVVMxEDAOBgNV
BAgMB01vbnRhbmExEDAOBgNVBAcMB0JvemVtYW4xETAPBgNVBAoMCFNhd3Rvb3Ro
MRMwEQYDVQQLDApDb25zdWx0aW5nMRgwFgYDVQQDDA93d3cud29sZnNzbC5jb20x
HzAdBgkqhkiG9w0BCQEWEGluZm9Ad29sZnNzbC5jb20XDTIxMTIyMDIzMDcyNVoX
DTI0MDkxNTIzMDcyNVowFDASAgECFw0yMTEyMjAyMzA3MjVaoA4wDDAKBgNVHRQE
AwIBAjANBgkqhkiG9w0BAQsFAAOCAQEAi8C4ywNcjNFTssWxTfOz6BO/X6cazHTo
BmbBy4nD47P7aE6P0Fsz2O1eFLMhyMAGZpdtaZZ4vanRWYUPEyktL0mHlIQUlDh0
BBaUEOryMdg0t2XoXlJPlqy/X09s7l0EKiayKXydBoKzteZb1RFyVtU0dYJeKvPG
Z3KUxgKD6FiFLXPbVTCiwrG7TL/2otiz/Bu9UZdO9MIETwTuYedRS08J/hBcPB7g
y1EfVPQ4P2xY7k74yjTNN+67BlMUx2CkiayaUEq1nrNZl5snXlz6FHQ9onZiY67o
0vm3rQw/B0BQXOT7lTw93y6B8mqeAWnDoh7XACttbGfw+xPO8aUI1g==
-----END X509 CRL-----
Certificate:
    Data:
        Version: 3 (0x2)
        Serial Number:
            7d:94:70:88:ba:07:42:8d:aa:af:4f:be:c2:1a:48:f0:d1:40:e6:42
        Signature Algorithm: sha256WithRSAEncryption
        Issuer: C = US, ST = Montana, L = Bozeman, O = Sawtooth, OU = Consulting, CN = www.wolfssl.com, emailAddress = info@wolfssl.com
        Validity
            Not Before: Dec 20 23:07:24 2021 GMT
            Not After : Sep 15 23:07:24 2024 GMT
        Subject: C = US, ST = Montana, L = Bozeman, O = Sawtooth, OU = Consulting, CN = www.wolfssl.com, emailAddress = info@wolfssl.com
        Subject Public Key Info:
            Public Key Algorithm: rsaEncryption
                RSA Public-Key: (2048 bit)
                Modulus:
                    00:bf:0c:ca:2d:14:b2:1e:84:42:5b:cd:38:1f:4a:
                    f2:4d:75:10:f1:b6:35:9f:df:ca:7d:03:98:d3:ac:
                    de:03:66:ee:2a:f1:d8:b0:7d:6e:07:54:0b:10:98:
                    21:4d:80:cb:12:20:e7:cc:4f:de:45:7d:c9:72:77:
                    32:ea:ca:90:bb:69:52:10:03:2f:a8:f3:95:c5:f1:
                    8b:62:56:1b:ef:67:6f:a4:10:41:95:ad:0a:9b:e3:
                    a5:c0:b0:d2:70:76:50:30:5b:a8:e8:08:2c:7c:ed:
                    a7:a2:7a:8d:38:29:1c:ac:c7:ed:f2:7c:95:b0:95:
                    82:7d:49:5c:38:cd:77:25:ef:bd:80:75:53:94:3c:
                    3d:ca:63:5b:9f:15:b5:d3:1d:13:2f:19:d1:3c:db:
                    76:3a:cc:b8:7d:c9:e5:c2:d7:da:40:6f:d8:21:dc:
                    73:1b:42:2d:53:9c:fe:1a:fc:7d:ab:7a:36:3f:98:
                    de:84:7c:05:67:ce:6a:14:38:87:a9:f1:8c:b5:68:
                    cb:68:7f:71:20:2b:f5:a0:63:f5:56:2f:a3:26:d2:
                    b7:6f:b1:5a:17:d7:38:99:08:fe:93:58:6f:fe:c3:
                    13:49:08:16:0b:a7:4d:67:00:52:31:67:23:4e:98:
                    ed:51:45:1d:b9:04:d9:0b:ec:d8:28:b3:4b:bd:ed:
                    36:79
                Exponent: 65537 (0x10001)
        X509v3 extensions:
            X509v3 Subject Key Identifier: 
                27:8E:67:11:74:C3:26:1D:3F:ED:33:63:B3:A4:D8:1D:30:E5:E8:D5
            X509v3 Authority Key Identifier: 
                keyid:27:8E:67:11:74:C3:26:1D:3F:ED:33:63:B3:A4:D8:1D:30:E5:E8:D5
                DirName:/C=US/ST=Montana/L=Bozeman/O=Sawtooth/OU=Consulting/CN=www.wolfssl.com/emailAddress=info@wolfssl.com
                serial:7D:94:70:88:BA:07:42:8D:AA:AF:4F:BE:C2:1A:48:F0:D1:40:E6:42

            X509v3 Basic Constraints: 
                CA:TRUE
            X509v3 Subject Alternative Name: 
                DNS:example.com, IP Address:127.0.0.1
            X509v3 Extended Key Usage: 
                TLS Web Server Authentication, TLS Web Client Authentication
    Signature Algorithm: sha256WithRSAEncryption
         b0:71:bb:ba:45:5a:80:25:02:a4:7e:88:0b:a9:7b:fd:b0:bb:
         f6:46:b5:ba:f4:c7:e3:61:20:8c:03:15:66:f5:e4:54:82:ef:
         13:80:97:22:67:c1:d1:88:5d:e2:2d:57:f6:e0:9f:69:d6:b1:
         5c:b6:e8:e0:98:89:c8:14:12:d6:b6:89:8d:6c:b9:a0:59:4f:
         92:ee:11:53:6b:7d:93:4a:69:0a:85:d9:d5:d2:62:e8:c9:b5:
         c6:4e:17:f5:0a:e8:f3:2d:86:61:0b:eb:c4:c4:c6:67:75:ed:
         9a:9f:53:a0:71:1e:a0:90:0d:f9:03:b4:bc:86:19:6e:f0:3b:
         4f:e8:ed:68:f6:e7:23:43:3b:36:83:83:4b:46:a0:9a:01:d0:
         c7:85:bb:7d:94:a0:21:3d:7e:3c:6a:3d:81:db:41:7b:46:d8:
         15:62:d5:8f:4d:3d:c0:db:9a:c5:81:a8:ac:da:87:99:c7:dd:
         b9:f1:14:af:d1:93:e3:f3:42:d7:a2:04:51:21:54:29:c3:45:
         f6:be:5c:fa:cd:db:bf:2f:79:81:42:e5:8f:47:0b:d4:54:01:
         b5:c2:4a:46:d6:a8:31:2e:64:80:3f:48:61:91:29:f3:aa:43:
         5c:69:6e:f1:01:b9:df:63:71:3d:b9:5a:fb:36:c0:11:a2:c3:
         30:9d:95:c3
-----BEGIN CERTIFICATE-----
MIIE/zCCA+egAwIBAgIUfZRwiLoHQo2qr0++whpI8NFA5kIwDQYJKoZIhvcNAQEL
BQAwgZQxCzAJBgNVBAYTAlVTMRAwDgYDVQQIDAdNb250YW5hMRAwDgYDVQQHDAdC
b3plbWFuMREwDwYDVQQKDAhTYXd0b290aDETMBEGA1UECwwKQ29uc3VsdGluZzEY
MBYGA1UEAwwPd3d3LndvbGZzc2wuY29tMR8wHQYJKoZIhvcNAQkBFhBpbmZvQHdv
bGZzc2wuY29tMB4XDTIxMTIyMDIzMDcyNFoXDTI0MDkxNTIzMDcyNFowgZQxCzAJ
BgNVBAYTAlVTMRAwDgYDVQQIDAdNb250YW5hMRAwDgYDVQQHDAdCb3plbWFuMREw
DwYDVQQKDAhTYXd0b290aDETMBEGA1UECwwKQ29uc3VsdGluZzEYMBYGA1UEAwwP
d3d3LndvbGZzc2wuY29tMR8wHQYJKoZIhvcNAQkBFhBpbmZvQHdvbGZzc2wuY29t
MIIBIjANBgkqhkiG9w0BAQEFAAOCAQ8AMIIBCgKCAQEAvwzKLRSyHoRCW804H0ry
TXUQ8bY1n9/KfQOY06zeA2buKvHYsH1uB1QLEJghTYDLEiDnzE/eRX3Jcncy6sqQ
u2lSEAMvqPOVxfGLYlYb72dvpBBBla0Km+OlwLDScHZQMFuo6AgsfO2nonqNOCkc
rMft8nyVsJWCfUlcOM13Je+9gHVTlDw9ymNbnxW10x0TLxnRPNt2Osy4fcnlwtfa
QG/YIdxzG0ItU5z+Gvx9q3o2P5jehHwFZ85qFDiHqfGMtWjLaH9xICv1oGP1Vi+j
JtK3b7FaF9c4mQj+k1hv/sMTSQgWC6dNZwBSMWcjTpjtUUUduQTZC+zYKLNLve02
eQIDAQABo4IBRTCCAUEwHQYDVR0OBBYEFCeOZxF0wyYdP+0zY7Ok2B0w5ejVMIHU
BgNVHSMEgcwwgcmAFCeOZxF0wyYdP+0zY7Ok2B0w5ejVoYGapIGXMIGUMQswCQYD
VQQGEwJVUzEQMA4GA1UECAwHTW9udGFuYTEQMA4GA1UEBwwHQm96ZW1hbjERMA8G
A1UECgwIU2F3dG9vdGgxEzARBgNVBAsMCkNvbnN1bHRpbmcxGDAWBgNVBAMMD3d3
dy53b2xmc3NsLmNvbTEfMB0GCSqGSIb3DQEJARYQaW5mb0B3b2xmc3NsLmNvbYIU
fZRwiLoHQo2qr0++whpI8NFA5kIwDAYDVR0TBAUwAwEB/zAcBgNVHREEFTATggtl
eGFtcGxlLmNvbYcEfwAAATAdBgNVHSUEFjAUBggrBgEFBQcDAQYIKwYBBQUHAwIw
DQYJKoZIhvcNAQELBQADggEBALBxu7pFWoAlAqR+iAupe/2wu/ZGtbr0x+NhIIwD
FWb15FSC7xOAlyJnwdGIXeItV/bgn2nWsVy26OCYicgUEta2iY1suaBZT5LuEVNr
fZNKaQqF2dXSYujJtcZOF/UK6PMthmEL68TExmd17ZqfU6BxHqCQDfkDtLyGGW7w
O0/o7Wj25yNDOzaDg0tGoJoB0MeFu32UoCE9fjxqPYHbQXtG2BVi1Y9NPcDbmsWB
qKzah5nH3bnxFK/Rk+PzQteiBFEhVCnDRfa+XPrN278veYFC5Y9HC9RUAbXCSkbW
qDEuZIA/SGGRKfOqQ1xpbvEBud9jcT25Wvs2wBGiwzCdlcM=
-----END CERTIFICATE-----
